; Function Attrs: mustprogress nofree norecurse nosync nounwind willreturn memory(argmem: readwrite) uwtable
define void @ossl_quic_tx_packetiser_consume_unvalidated_credit(ptr noundef captures(none) %0, i64 noundef %1) local_unnamed_addr #1 {
  %3 = getelementptr inbounds nuw i8, ptr %0, i64 480
  %4 = load i64, ptr %3, align 8, !tbaa !3
  %.not = icmp eq i64 %4, -1
  br i1 %.not, label %5, label %.sink.split

.sink.split:                                      ; preds = %2
  %.sink = tail call i64 @llvm.usub.sat.i64(i64 %4, i64 %1)
  store i64 %.sink, ptr %3, align 8, !tbaa !3
  br label %5

5:                                                ; preds = %.sink.split, %2
  ret void
}